target datalayout = "e-m:e-p270:32:32-p271:32:32-p272:64:64-i64:64-i128:128-f80:128-n8:16:32:64-S128"
target triple = "x86_64-pc-linux-gnu"

%struct.addrinfo = type { i32, i32, i32, i32, i32, ptr, ptr, ptr }

; Function Attrs: nounwind uwtable
define ptr @evutil_dup_addrinfo_(ptr noundef %0) #0 {
  %2 = alloca ptr, align 8
  %3 = alloca ptr, align 8
  %4 = alloca ptr, align 8
  %5 = alloca i32, align 4
  %6 = alloca ptr, align 8
  store ptr %0, ptr %2, align 8
  call void @llvm.lifetime.start.p0(i64 8, ptr %3) #11
  store ptr null, ptr %3, align 8
  call void @llvm.lifetime.start.p0(i64 8, ptr %4) #11
  store ptr null, ptr %4, align 8
  br label %7

7:                                                ; preds = %50, %1
  %8 = load ptr, ptr %2, align 8
  %9 = icmp ne ptr %8, null
  br i1 %9, label %10, label %54

10:                                               ; preds = %7
  call void @llvm.lifetime.start.p0(i64 4, ptr %5) #11
  %11 = load ptr, ptr %2, align 8
  %12 = getelementptr inbounds nuw %struct.addrinfo, ptr %11, i32 0, i32 4
  %13 = load i32, ptr %12, align 8
  %14 = zext i32 %13 to i64
  %15 = add i64 48, %14
  %16 = trunc i64 %15 to i32
  store i32 %16, ptr %5, align 4
  call void @llvm.lifetime.start.p0(i64 8, ptr %6) #11
  %17 = load i32, ptr %5, align 4
  %18 = sext i32 %17 to i64
  %19 = call ptr @event_mm_calloc_(i64 noundef 1, i64 noundef %18)
  store ptr %19, ptr %6, align 8
  %20 = load ptr, ptr %6, align 8
  %21 = load ptr, ptr %2, align 8
  %22 = load i32, ptr %5, align 4
  %23 = sext i32 %22 to i64
  call void @llvm.memcpy.p0.p0.i64(ptr align 8 %20, ptr align 8 %21, i64 %23, i1 false)
  %24 = load ptr, ptr %2, align 8
  %25 = getelementptr inbounds nuw %struct.addrinfo, ptr %24, i32 0, i32 6
  %26 = load ptr, ptr %25, align 8
  %27 = icmp ne ptr %26, null
  br i1 %27, label %28, label %35

28:                                               ; preds = %10
  %29 = load ptr, ptr %2, align 8
  %30 = getelementptr inbounds nuw %struct.addrinfo, ptr %29, i32 0, i32 6
  %31 = load ptr, ptr %30, align 8
  %32 = call ptr @event_mm_strdup_(ptr noundef %31)
  %33 = load ptr, ptr %6, align 8
  %34 = getelementptr inbounds nuw %struct.addrinfo, ptr %33, i32 0, i32 6
  store ptr %32, ptr %34, align 8
  br label %35

35:                                               ; preds = %28, %10
  %36 = load ptr, ptr %6, align 8
  %37 = getelementptr inbounds nuw i8, ptr %36, i64 48
  %38 = load ptr, ptr %6, align 8
  %39 = getelementptr inbounds nuw %struct.addrinfo, ptr %38, i32 0, i32 5
  store ptr %37, ptr %39, align 8
  %40 = load ptr, ptr %3, align 8
  %41 = icmp ne ptr %40, null
  br i1 %41, label %44, label %42

42:                                               ; preds = %35
  %43 = load ptr, ptr %6, align 8
  store ptr %43, ptr %3, align 8
  br label %48

44:                                               ; preds = %35
  %45 = load ptr, ptr %6, align 8
  %46 = load ptr, ptr %4, align 8
  %47 = getelementptr inbounds nuw %struct.addrinfo, ptr %46, i32 0, i32 7
  store ptr %45, ptr %47, align 8
  br label %48

48:                                               ; preds = %44, %42
  %49 = load ptr, ptr %6, align 8
  store ptr %49, ptr %4, align 8
  call void @llvm.lifetime.end.p0(i64 8, ptr %6) #11
  call void @llvm.lifetime.end.p0(i64 4, ptr %5) #11
  br label %50

50:                                               ; preds = %48
  %51 = load ptr, ptr %2, align 8
  %52 = getelementptr inbounds nuw %struct.addrinfo, ptr %51, i32 0, i32 7
  %53 = load ptr, ptr %52, align 8
  store ptr %53, ptr %2, align 8
  br label %7, !llvm.loop !12

54:                                               ; preds = %7
  %55 = load ptr, ptr %3, align 8
  call void @llvm.lifetime.end.p0(i64 8, ptr %4) #11
  call void @llvm.lifetime.end.p0(i64 8, ptr %3) #11
  ret ptr %55
}