; Function Attrs: nounwind uwtable
define ptr @evutil_dup_addrinfo_(ptr noundef readonly captures(address_is_null) %0) local_unnamed_addr #0 {
  %.not22 = icmp eq ptr %0, null
  br i1 %.not22, label %._crit_edge, label %.lr.ph

.lr.ph:                                           ; preds = %1, %17
  %.025 = phi ptr [ %19, %17 ], [ %0, %1 ]
  %.01724 = phi ptr [ %.1, %17 ], [ null, %1 ]
  %.01823 = phi ptr [ %6, %17 ], [ null, %1 ]
  %2 = getelementptr inbounds nuw i8, ptr %.025, i64 16
  %3 = load i32, ptr %2, align 8
  %4 = add i32 %3, 48
  %5 = sext i32 %4 to i64
  %6 = tail call ptr @event_mm_calloc_(i64 noundef 1, i64 noundef %5) #30
  tail call void @llvm.memcpy.p0.p0.i64(ptr align 8 %6, ptr nonnull align 8 %.025, i64 %5, i1 false)
  %7 = getelementptr inbounds nuw i8, ptr %.025, i64 32
  %8 = load ptr, ptr %7, align 8
  %.not20 = icmp eq ptr %8, null
  br i1 %.not20, label %12, label %9

9:                                                ; preds = %.lr.ph
  %10 = tail call ptr @event_mm_strdup_(ptr noundef nonnull %8) #30
  %11 = getelementptr inbounds nuw i8, ptr %6, i64 32
  store ptr %10, ptr %11, align 8
  br label %12

12:                                               ; preds = %9, %.lr.ph
  %13 = getelementptr inbounds nuw i8, ptr %6, i64 48
  %14 = getelementptr inbounds nuw i8, ptr %6, i64 24
  store ptr %13, ptr %14, align 8
  %.not21 = icmp eq ptr %.01724, null
  br i1 %.not21, label %17, label %15

15:                                               ; preds = %12
  %16 = getelementptr inbounds nuw i8, ptr %.01823, i64 40
  store ptr %6, ptr %16, align 8
  br label %17

17:                                               ; preds = %12, %15
  %.1 = phi ptr [ %.01724, %15 ], [ %6, %12 ]
  %18 = getelementptr inbounds nuw i8, ptr %.025, i64 40
  %19 = load ptr, ptr %18, align 8
  %.not = icmp eq ptr %19, null
  br i1 %.not, label %._crit_edge, label %.lr.ph, !llvm.loop !13

._crit_edge:                                      ; preds = %17, %1
  %.017.lcssa = phi ptr [ null, %1 ], [ %.1, %17 ]
  ret ptr %.017.lcssa
}